target datalayout = "e-m:e-p270:32:32-p271:32:32-p272:64:64-i64:64-i128:128-f80:128-n8:16:32:64-S128"
target triple = "x86_64-pc-linux-gnu"

%struct.Aig_Obj_t_ = type { %union.anon, ptr, ptr, i64, i32, i32, %union.anon.0 }
%union.anon = type { ptr }
%union.anon.0 = type { ptr }

; Function Attrs: inlinehint nounwind uwtable
define internal ptr @Aig_Regular(ptr noundef %0) #3 {
  %2 = alloca ptr, align 8
  store ptr %0, ptr %2, align 8, !tbaa !14
  %3 = load ptr, ptr %2, align 8, !tbaa !14
  %4 = ptrtoint ptr %3 to i64
  %5 = and i64 %4, -2
  %6 = inttoptr i64 %5 to ptr
  ret ptr %6
}

; Function Attrs: inlinehint nounwind uwtable
define internal ptr @Aig_ObjFanin1(ptr noundef %0) #3 {
  %2 = alloca ptr, align 8
  store ptr %0, ptr %2, align 8, !tbaa !14
  %3 = load ptr, ptr %2, align 8, !tbaa !14
  %4 = getelementptr inbounds nuw %struct.Aig_Obj_t_, ptr %3, i32 0, i32 2
  %5 = load ptr, ptr %4, align 8, !tbaa !66
  %6 = call ptr @Aig_Regular(ptr noundef %5)
  ret ptr %6
}

; Function Attrs: inlinehint nounwind uwtable
define internal ptr @Aig_ObjFanin0(ptr noundef %0) #3 {
  %2 = alloca ptr, align 8
  store ptr %0, ptr %2, align 8, !tbaa !14
  %3 = load ptr, ptr %2, align 8, !tbaa !14
  %4 = getelementptr inbounds nuw %struct.Aig_Obj_t_, ptr %3, i32 0, i32 1
  %5 = load ptr, ptr %4, align 8, !tbaa !65
  %6 = call ptr @Aig_Regular(ptr noundef %5)
  ret ptr %6
}

; Function Attrs: inlinehint nounwind uwtable
define internal i32 @Aig_ObjIsBuf(ptr noundef %0) #3 {
  %2 = alloca ptr, align 8
  store ptr %0, ptr %2, align 8, !tbaa !14
  %3 = load ptr, ptr %2, align 8, !tbaa !14
  %4 = getelementptr inbounds nuw %struct.Aig_Obj_t_, ptr %3, i32 0, i32 3
  %5 = load i64, ptr %4, align 8
  %6 = and i64 %5, 7
  %7 = trunc i64 %6 to i32
  %8 = icmp eq i32 %7, 4
  %9 = zext i1 %8 to i32
  ret i32 %9
}

; Function Attrs: inlinehint nounwind uwtable
define internal i32 @Aig_ObjIsCi(ptr noundef %0) #3 {
  %2 = alloca ptr, align 8
  store ptr %0, ptr %2, align 8, !tbaa !14
  %3 = load ptr, ptr %2, align 8, !tbaa !14
  %4 = getelementptr inbounds nuw %struct.Aig_Obj_t_, ptr %3, i32 0, i32 3
  %5 = load i64, ptr %4, align 8
  %6 = and i64 %5, 7
  %7 = trunc i64 %6 to i32
  %8 = icmp eq i32 %7, 2
  %9 = zext i1 %8 to i32
  ret i32 %9
}

; Function Attrs: inlinehint nounwind uwtable
define internal ptr @Dar_ObjCuts(ptr noundef %0) #3 {
  %2 = alloca ptr, align 8
  store ptr %0, ptr %2, align 8, !tbaa !14
  %3 = load ptr, ptr %2, align 8, !tbaa !14
  %4 = getelementptr inbounds nuw %struct.Aig_Obj_t_, ptr %3, i32 0, i32 6
  %5 = load ptr, ptr %4, align 8, !tbaa !19
  ret ptr %5
}

; Function Attrs: nounwind uwtable
define ptr @Dar_ObjComputeCuts_rec(ptr noundef %0, ptr noundef %1) #0 {
  %3 = alloca ptr, align 8
  %4 = alloca ptr, align 8
  %5 = alloca ptr, align 8
  store ptr %0, ptr %4, align 8, !tbaa !26
  store ptr %1, ptr %5, align 8, !tbaa !14
  %6 = load ptr, ptr %5, align 8, !tbaa !14
  %7 = call ptr @Dar_ObjCuts(ptr noundef %6)
  %8 = icmp ne ptr %7, null
  br i1 %8, label %9, label %12

9:                                                ; preds = %2
  %10 = load ptr, ptr %5, align 8, !tbaa !14
  %11 = call ptr @Dar_ObjCuts(ptr noundef %10)
  store ptr %11, ptr %3, align 8
  br label %41

12:                                               ; preds = %2
  %13 = load ptr, ptr %5, align 8, !tbaa !14
  %14 = call i32 @Aig_ObjIsCi(ptr noundef %13)
  %15 = icmp ne i32 %14, 0
  br i1 %15, label %16, label %20

16:                                               ; preds = %12
  %17 = load ptr, ptr %4, align 8, !tbaa !26
  %18 = load ptr, ptr %5, align 8, !tbaa !14
  %19 = call ptr @Dar_ObjPrepareCuts(ptr noundef %17, ptr noundef %18)
  store ptr %19, ptr %3, align 8
  br label %41

20:                                               ; preds = %12
  %21 = load ptr, ptr %5, align 8, !tbaa !14
  %22 = call i32 @Aig_ObjIsBuf(ptr noundef %21)
  %23 = icmp ne i32 %22, 0
  br i1 %23, label %24, label %29

24:                                               ; preds = %20
  %25 = load ptr, ptr %4, align 8, !tbaa !26
  %26 = load ptr, ptr %5, align 8, !tbaa !14
  %27 = call ptr @Aig_ObjFanin0(ptr noundef %26)
  %28 = call ptr @Dar_ObjComputeCuts_rec(ptr noundef %25, ptr noundef %27)
  store ptr %28, ptr %3, align 8
  br label %41

29:                                               ; preds = %20
  %30 = load ptr, ptr %4, align 8, !tbaa !26
  %31 = load ptr, ptr %5, align 8, !tbaa !14
  %32 = call ptr @Aig_ObjFanin0(ptr noundef %31)
  %33 = call ptr @Dar_ObjComputeCuts_rec(ptr noundef %30, ptr noundef %32)
  %34 = load ptr, ptr %4, align 8, !tbaa !26
  %35 = load ptr, ptr %5, align 8, !tbaa !14
  %36 = call ptr @Aig_ObjFanin1(ptr noundef %35)
  %37 = call ptr @Dar_ObjComputeCuts_rec(ptr noundef %34, ptr noundef %36)
  %38 = load ptr, ptr %4, align 8, !tbaa !26
  %39 = load ptr, ptr %5, align 8, !tbaa !14
  %40 = call ptr @Dar_ObjComputeCuts(ptr noundef %38, ptr noundef %39, i32 noundef 0)
  store ptr %40, ptr %3, align 8
  br label %41

41:                                               ; preds = %29, %24, %16, %9
  %42 = load ptr, ptr %3, align 8
  ret ptr %42
}