; Function Attrs: nounwind uwtable
define ptr @Dar_ObjComputeCuts_rec(ptr noundef %0, ptr noundef %1) local_unnamed_addr #3 {
  %3 = getelementptr i8, ptr %1, i64 40
  %.val1730 = load ptr, ptr %3, align 8, !tbaa !13
  %.not31 = icmp eq ptr %.val1730, null
  br i1 %.not31, label %.lr.ph, label %common.ret43

.lr.ph:                                           ; preds = %2, %tailrecurse
  %.tr2532 = phi ptr [ %11, %tailrecurse ], [ %1, %2 ]
  %4 = getelementptr i8, ptr %.tr2532, i64 24
  %.val18 = load i64, ptr %4, align 8
  %5 = and i64 %.val18, 7
  switch i64 %5, label %13 [
    i64 2, label %6
    i64 4, label %tailrecurse
  ]

6:                                                ; preds = %.lr.ph
  %7 = tail call ptr @Dar_ObjPrepareCuts(ptr noundef %0, ptr noundef nonnull %.tr2532)
  br label %common.ret43

tailrecurse:                                      ; preds = %.lr.ph
  %8 = getelementptr i8, ptr %.tr2532, i64 8
  %.val20 = load ptr, ptr %8, align 8, !tbaa !50
  %9 = ptrtoint ptr %.val20 to i64
  %10 = and i64 %9, -2
  %11 = inttoptr i64 %10 to ptr
  %12 = getelementptr i8, ptr %11, i64 40
  %.val17 = load ptr, ptr %12, align 8, !tbaa !13
  %.not = icmp eq ptr %.val17, null
  br i1 %.not, label %.lr.ph, label %common.ret43

common.ret43:                                     ; preds = %6, %2, %tailrecurse, %13
  %common.ret43.op = phi ptr [ %24, %13 ], [ %7, %6 ], [ %.val1730, %2 ], [ %.val17, %tailrecurse ]
  ret ptr %common.ret43.op

13:                                               ; preds = %.lr.ph
  %14 = getelementptr i8, ptr %.tr2532, i64 8
  %.val21 = load ptr, ptr %14, align 8, !tbaa !50
  %15 = ptrtoint ptr %.val21 to i64
  %16 = and i64 %15, -2
  %17 = inttoptr i64 %16 to ptr
  %18 = tail call ptr @Dar_ObjComputeCuts_rec(ptr noundef %0, ptr noundef %17)
  %19 = getelementptr i8, ptr %.tr2532, i64 16
  %.val22 = load ptr, ptr %19, align 8, !tbaa !51
  %20 = ptrtoint ptr %.val22 to i64
  %21 = and i64 %20, -2
  %22 = inttoptr i64 %21 to ptr
  %23 = tail call ptr @Dar_ObjComputeCuts_rec(ptr noundef %0, ptr noundef %22)
  %24 = tail call ptr @Dar_ObjComputeCuts(ptr noundef %0, ptr noundef nonnull %.tr2532, i32 noundef 0)
  br label %common.ret43
}